; Function Attrs: nounwind uwtable
define ptr @l_Lean_Elab_pushInfoLeaf___at_Lean_Elab_OpenDecl_elabOpenDecl___spec__49___rarg(ptr noundef %0, ptr noundef %1, ptr noundef %2, ptr noundef %3) #0 {
  %5 = getelementptr inbounds nuw i8, ptr %1, i64 8
  %6 = load ptr, ptr %5, align 8, !tbaa !4
  %7 = ptrtoint ptr %6 to i64
  %8 = and i64 %7, 1
  %.not = icmp eq i64 %8, 0
  br i1 %.not, label %9, label %lean_inc.exit16

9:                                                ; preds = %4
  %.val.i = load i32, ptr %6, align 4, !tbaa !8
  %10 = icmp sgt i32 %.val.i, 0
  br i1 %10, label %11, label %13, !prof !11

11:                                               ; preds = %9
  %12 = add nuw i32 %.val.i, 1
  store i32 %12, ptr %6, align 4, !tbaa !8
  br label %lean_inc.exit16

13:                                               ; preds = %9
  %.not.i = icmp eq i32 %.val.i, 0
  br i1 %.not.i, label %lean_inc.exit16, label %14

14:                                               ; preds = %13
  tail call void @lean_inc_ref_cold(ptr noundef nonnull %6) #6
  br label %lean_inc.exit16

lean_inc.exit16:                                  ; preds = %14, %13, %11, %4
  %15 = getelementptr inbounds nuw i8, ptr %0, i64 16
  %16 = load ptr, ptr %15, align 8, !tbaa !4
  %17 = ptrtoint ptr %16 to i64
  %18 = and i64 %17, 1
  %.not20 = icmp eq i64 %18, 0
  br i1 %.not20, label %19, label %lean_inc.exit

19:                                               ; preds = %lean_inc.exit16
  %.val.i17 = load i32, ptr %16, align 4, !tbaa !8
  %20 = icmp sgt i32 %.val.i17, 0
  br i1 %20, label %21, label %23, !prof !11

21:                                               ; preds = %19
  %22 = add nuw i32 %.val.i17, 1
  store i32 %22, ptr %16, align 4, !tbaa !8
  br label %lean_inc.exit

23:                                               ; preds = %19
  %.not.i18 = icmp eq i32 %.val.i17, 0
  br i1 %.not.i18, label %lean_inc.exit, label %24

24:                                               ; preds = %23
  tail call void @lean_inc_ref_cold(ptr noundef nonnull %16) #6
  br label %lean_inc.exit

lean_inc.exit:                                    ; preds = %24, %23, %21, %lean_inc.exit16
  tail call void @lean_inc_heartbeat() #6
  %25 = tail call noalias ptr @mi_malloc_small(i64 noundef 56) #6
  %26 = icmp eq ptr %25, null
  br i1 %26, label %27, label %lean_alloc_closure.exit

27:                                               ; preds = %lean_inc.exit
  tail call void @lean_internal_panic_out_of_memory() #7
  unreachable

lean_alloc_closure.exit:                          ; preds = %lean_inc.exit
  %28 = getelementptr inbounds nuw i8, ptr %25, i64 4
  store i32 1, ptr %25, align 4, !tbaa !8
  store i32 -184549320, ptr %28, align 4
  %29 = getelementptr inbounds nuw i8, ptr %25, i64 8
  store ptr @l_Lean_Elab_pushInfoLeaf___at_Lean_Elab_OpenDecl_elabOpenDecl___spec__49___rarg___lambda__1___boxed, ptr %29, align 8, !tbaa !4
  %30 = getelementptr inbounds nuw i8, ptr %25, i64 16
  store i16 5, ptr %30, align 8, !tbaa !12
  %31 = getelementptr inbounds nuw i8, ptr %25, i64 18
  store i16 4, ptr %31, align 2, !tbaa !12
  %32 = getelementptr inbounds nuw i8, ptr %25, i64 24
  store ptr %0, ptr %32, align 8, !tbaa !4
  %33 = getelementptr inbounds nuw i8, ptr %25, i64 32
  store ptr %2, ptr %33, align 8, !tbaa !4
  %34 = getelementptr inbounds nuw i8, ptr %25, i64 40
  store ptr %1, ptr %34, align 8, !tbaa !4
  %35 = getelementptr inbounds nuw i8, ptr %25, i64 48
  store ptr %3, ptr %35, align 8, !tbaa !4
  %36 = tail call ptr @lean_apply_4(ptr noundef %16, ptr noundef nonnull inttoptr (i64 1 to ptr), ptr noundef nonnull inttoptr (i64 1 to ptr), ptr noundef %6, ptr noundef nonnull %25) #6
  ret ptr %36
}